target datalayout = "e-m:e-p270:32:32-p271:32:32-p272:64:64-i64:64-i128:128-f80:128-n8:16:32:64-S128"
target triple = "x86_64-pc-linux-gnu"

%union.stbcc__global_clumpid = type { %struct.anon }
%struct.anon = type { i32 }
%struct.st_stbcc_grid = type { i32, i32, i32, i32, i32, [1024 x [128 x i8]], [1024 x [1024 x i16]], [32 x [32 x %struct.stbcc__cluster]] }
%struct.stbcc__cluster = type { i16, i8, i8, [512 x %struct.stbcc__clump], [128 x %struct.stbcc__relative_clumpid] }
%struct.stbcc__clump = type { %union.stbcc__global_clumpid, i8, i8, i8, i8 }
%struct.stbcc__relative_clumpid = type { i16 }

; Function Attrs: nounwind uwtable
define i32 @stbcc_query_grid_open(ptr noundef %0, i32 noundef %1, i32 noundef %2) #0 {
  %4 = alloca ptr, align 8
  %5 = alloca i32, align 4
  %6 = alloca i32, align 4
  store ptr %0, ptr %4, align 8, !tbaa !3
  store i32 %1, ptr %5, align 4, !tbaa !8
  store i32 %2, ptr %6, align 4, !tbaa !8
  %7 = load ptr, ptr %4, align 8, !tbaa !3
  %8 = getelementptr inbounds nuw %struct.st_stbcc_grid, ptr %7, i32 0, i32 5
  %9 = load i32, ptr %6, align 4, !tbaa !8
  %10 = sext i32 %9 to i64
  %11 = getelementptr inbounds [1024 x [128 x i8]], ptr %8, i64 0, i64 %10
  %12 = load i32, ptr %5, align 4, !tbaa !8
  %13 = ashr i32 %12, 3
  %14 = sext i32 %13 to i64
  %15 = getelementptr inbounds [128 x i8], ptr %11, i64 0, i64 %14
  %16 = load i8, ptr %15, align 1, !tbaa !13
  %17 = zext i8 %16 to i32
  %18 = load i32, ptr %5, align 4, !tbaa !8
  %19 = and i32 %18, 7
  %20 = shl i32 1, %19
  %21 = and i32 %17, %20
  %22 = icmp ne i32 %21, 0
  %23 = zext i1 %22 to i32
  ret i32 %23
}