; Function Attrs: mustprogress nofree norecurse nosync nounwind willreturn memory(argmem: read) uwtable
define range(i32 0, 2) i32 @stbcc_query_grid_open(ptr noundef readonly captures(none) %0, i32 noundef %1, i32 noundef %2) local_unnamed_addr #0 {
  %4 = getelementptr inbounds nuw i8, ptr %0, i64 20
  %5 = sext i32 %2 to i64
  %6 = ashr i32 %1, 3
  %7 = sext i32 %6 to i64
  %8 = getelementptr inbounds [1024 x [128 x i8]], ptr %4, i64 0, i64 %5, i64 %7
  %9 = load i8, ptr %8, align 1, !tbaa !7
  %10 = zext i8 %9 to i32
  %11 = and i32 %1, 7
  %12 = lshr i32 %10, %11
  %13 = and i32 %12, 1
  ret i32 %13
}